target datalayout = "e-m:e-p270:32:32-p271:32:32-p272:64:64-i64:64-i128:128-f80:128-n8:16:32:64-S128"
target triple = "x86_64-pc-linux-gnu"

%struct.cmsCIELab = type { double, double, double }
%struct._cmstransform_struct = type { i32, i32, ptr, ptr, ptr, ptr, ptr, %struct._cmsCACHE, ptr, ptr, ptr, ptr, i32, i32, %struct.cmsCIEXYZ, %struct.cmsCIEXYZ, ptr, i32, double, i32, ptr, ptr, ptr, ptr, ptr, i32, i32 }
%struct._cmsCACHE = type { [16 x i16], [16 x i16] }
%struct.cmsCIEXYZ = type { double, double, double }

; Function Attrs: nounwind uwtable
define internal ptr @PackLabDoubleFrom16(ptr noundef %0, ptr noundef %1, ptr noundef %2, i32 noundef %3) #0 {
  %5 = alloca ptr, align 8
  %6 = alloca ptr, align 8
  %7 = alloca ptr, align 8
  %8 = alloca ptr, align 8
  %9 = alloca i32, align 4
  %10 = alloca %struct.cmsCIELab, align 8
  %11 = alloca ptr, align 8
  store ptr %0, ptr %6, align 8
  store ptr %1, ptr %7, align 8
  store ptr %2, ptr %8, align 8
  store i32 %3, ptr %9, align 4
  %12 = load ptr, ptr %6, align 8
  %13 = getelementptr inbounds %struct._cmstransform_struct, ptr %12, i32 0, i32 1
  %14 = load i32, ptr %13, align 4
  %15 = lshr i32 %14, 12
  %16 = and i32 %15, 1
  %17 = icmp ne i32 %16, 0
  br i1 %17, label %18, label %40

18:                                               ; preds = %4
  %19 = load ptr, ptr %8, align 8
  store ptr %19, ptr %11, align 8
  %20 = load ptr, ptr %7, align 8
  call void @cmsLabEncoded2Float(ptr noundef %10, ptr noundef %20)
  %21 = getelementptr inbounds %struct.cmsCIELab, ptr %10, i32 0, i32 0
  %22 = load double, ptr %21, align 8
  %23 = load ptr, ptr %11, align 8
  %24 = getelementptr inbounds double, ptr %23, i64 0
  store double %22, ptr %24, align 8
  %25 = getelementptr inbounds %struct.cmsCIELab, ptr %10, i32 0, i32 1
  %26 = load double, ptr %25, align 8
  %27 = load ptr, ptr %11, align 8
  %28 = load i32, ptr %9, align 4
  %29 = zext i32 %28 to i64
  %30 = getelementptr inbounds double, ptr %27, i64 %29
  store double %26, ptr %30, align 8
  %31 = getelementptr inbounds %struct.cmsCIELab, ptr %10, i32 0, i32 2
  %32 = load double, ptr %31, align 8
  %33 = load ptr, ptr %11, align 8
  %34 = load i32, ptr %9, align 4
  %35 = mul i32 %34, 2
  %36 = zext i32 %35 to i64
  %37 = getelementptr inbounds double, ptr %33, i64 %36
  store double %32, ptr %37, align 8
  %38 = load ptr, ptr %8, align 8
  %39 = getelementptr inbounds i8, ptr %38, i64 8
  store ptr %39, ptr %5, align 8
  br label %53

40:                                               ; preds = %4
  %41 = load ptr, ptr %8, align 8
  %42 = load ptr, ptr %7, align 8
  call void @cmsLabEncoded2Float(ptr noundef %41, ptr noundef %42)
  %43 = load ptr, ptr %8, align 8
  %44 = load ptr, ptr %6, align 8
  %45 = getelementptr inbounds %struct._cmstransform_struct, ptr %44, i32 0, i32 1
  %46 = load i32, ptr %45, align 4
  %47 = lshr i32 %46, 7
  %48 = and i32 %47, 7
  %49 = zext i32 %48 to i64
  %50 = mul i64 %49, 8
  %51 = add i64 24, %50
  %52 = getelementptr inbounds i8, ptr %43, i64 %51
  store ptr %52, ptr %5, align 8
  br label %53

53:                                               ; preds = %40, %18
  %54 = load ptr, ptr %5, align 8
  ret ptr %54
}