; Function Attrs: nounwind uwtable
define internal nonnull ptr @PackLabDoubleFrom16(ptr nocapture noundef readonly %0, ptr noundef %1, ptr noundef %2, i32 noundef %3) #0 {
  %5 = alloca %struct.cmsCIELab, align 8
  %6 = getelementptr inbounds i8, ptr %0, i64 4
  %7 = load i32, ptr %6, align 4
  %8 = and i32 %7, 4096
  %.not = icmp eq i32 %8, 0
  br i1 %.not, label %21, label %9

9:                                                ; preds = %4
  call void @cmsLabEncoded2Float(ptr noundef nonnull %5, ptr noundef %1) #11
  %10 = load double, ptr %5, align 8
  store double %10, ptr %2, align 8
  %11 = getelementptr inbounds i8, ptr %5, i64 8
  %12 = load double, ptr %11, align 8
  %13 = zext i32 %3 to i64
  %14 = getelementptr inbounds double, ptr %2, i64 %13
  store double %12, ptr %14, align 8
  %15 = getelementptr inbounds i8, ptr %5, i64 16
  %16 = load double, ptr %15, align 8
  %17 = shl i32 %3, 1
  %18 = zext i32 %17 to i64
  %19 = getelementptr inbounds double, ptr %2, i64 %18
  store double %16, ptr %19, align 8
  %20 = getelementptr inbounds i8, ptr %2, i64 8
  br label %28

21:                                               ; preds = %4
  tail call void @cmsLabEncoded2Float(ptr noundef %2, ptr noundef %1) #11
  %22 = load i32, ptr %6, align 4
  %23 = lshr i32 %22, 4
  %24 = and i32 %23, 56
  %25 = zext nneg i32 %24 to i64
  %26 = getelementptr inbounds i8, ptr %2, i64 %25
  %27 = getelementptr inbounds i8, ptr %26, i64 24
  br label %28

28:                                               ; preds = %21, %9
  %.0 = phi ptr [ %20, %9 ], [ %27, %21 ]
  ret ptr %.0
}